target datalayout = "e-m:e-p270:32:32-p271:32:32-p272:64:64-i64:64-i128:128-f80:128-n8:16:32:64-S128"
target triple = "x86_64-unknown-linux-gnu"

%class.ast_pp_util = type { ptr, %class.obj_hashtable, %class.smt2_pp_environment_dbg, %class.stacked_value, %class.stacked_value, %class.stacked_value, %class.obj_mark, %class.ref_vector, %class.svector, %class.decl_collector }
%class.obj_hashtable = type { %class.core_hashtable.base, [4 x i8] }
%class.core_hashtable.base = type <{ ptr, i32, i32, i32 }>
%class.smt2_pp_environment_dbg = type { %class.smt2_pp_environment, ptr, %class.arith_util, %class.bv_util, %class.array_util, %class.fpa_util, %class.seq_util, %"class.datatype::util", %"class.datalog::dl_decl_util" }
%class.smt2_pp_environment = type { ptr, %class.smt_renaming }
%class.smt_renaming = type { %class.map, %class.map.2 }
%class.map = type { %class.table2map }
%class.table2map = type { %class.core_hashtable.0 }
%class.core_hashtable.0 = type <{ ptr, i32, i32, i32, [4 x i8] }>
%class.map.2 = type { %class.table2map.3 }
%class.table2map.3 = type { %class.core_hashtable.4 }
%class.core_hashtable.4 = type <{ ptr, i32, i32, i32, [4 x i8] }>
%class.arith_util = type { ptr, ptr }
%class.bv_util = type { %class.bv_recognizers, ptr, ptr }
%class.bv_recognizers = type { i32 }
%class.array_util = type { %class.array_recognizers, ptr }
%class.array_recognizers = type { i32 }
%class.fpa_util = type { ptr, ptr, i32, %class.arith_util, %class.bv_util }
%class.seq_util = type { ptr, ptr, ptr, i32, [4 x i8], %"class.seq_util::str", %"class.seq_util::rex" }
%"class.seq_util::str" = type <{ ptr, ptr, i32, [4 x i8] }>
%"class.seq_util::rex" = type { ptr, ptr, i32, %class.vector, %class.ref_vector, %"struct.seq_util::rex::info", %"struct.seq_util::rex::info" }
%class.vector = type { ptr }
%"struct.seq_util::rex::info" = type { i32, i8, i32, i32 }
%"class.datatype::util" = type { ptr, i32, ptr, %class.obj_map, %class.obj_map.9, %class.obj_map.14, %class.obj_map.19, %class.obj_map.19, %class.obj_map.19, %class.obj_map.24, %class.obj_map.24, %class.obj_map.24, %class.ref_vector.29, %class.ref_vector_core.34, %class.ptr_vector.37, i32, %class.ptr_vector.39 }
%class.obj_map = type { %class.core_hashtable.7 }
%class.core_hashtable.7 = type <{ ptr, i32, i32, i32, [4 x i8] }>
%class.obj_map.9 = type { %class.core_hashtable.10 }
%class.core_hashtable.10 = type <{ ptr, i32, i32, i32, [4 x i8] }>
%class.obj_map.14 = type { %class.core_hashtable.15 }
%class.core_hashtable.15 = type <{ ptr, i32, i32, i32, [4 x i8] }>
%class.obj_map.19 = type { %class.core_hashtable.20 }
%class.core_hashtable.20 = type <{ ptr, i32, i32, i32, [4 x i8] }>
%class.obj_map.24 = type { %class.core_hashtable.25 }
%class.core_hashtable.25 = type <{ ptr, i32, i32, i32, [4 x i8] }>
%class.ref_vector.29 = type { %class.ref_vector_core.30 }
%class.ref_vector_core.30 = type { %class.ref_manager_wrapper.31, %class.ptr_vector.32 }
%class.ref_manager_wrapper.31 = type { ptr }
%class.ptr_vector.32 = type { %class.vector.33 }
%class.vector.33 = type { ptr }
%class.ref_vector_core.34 = type { %class.ptr_vector.35 }
%class.ptr_vector.35 = type { %class.vector.36 }
%class.vector.36 = type { ptr }
%class.ptr_vector.37 = type { %class.vector.38 }
%class.vector.38 = type { ptr }
%class.ptr_vector.39 = type { %class.vector.40 }
%class.vector.40 = type { ptr }
%"class.datalog::dl_decl_util" = type <{ ptr, %class.scoped_ptr, %class.scoped_ptr.41, i32, [4 x i8] }>
%class.scoped_ptr = type { ptr }
%class.scoped_ptr.41 = type { ptr }
%class.stacked_value = type { i32, %class.vector.42 }
%class.vector.42 = type { ptr }
%class.obj_mark = type { %struct.default_t2uint, %class.bit_vector }
%struct.default_t2uint = type { i8 }
%class.bit_vector = type { i32, i32, ptr }
%class.ref_vector = type { %class.ref_vector_core }
%class.ref_vector_core = type { %class.ref_manager_wrapper, %class.ptr_vector }
%class.ref_manager_wrapper = type { ptr }
%class.ptr_vector = type { %class.vector.6 }
%class.vector.6 = type { ptr }
%class.svector = type { %class.vector.43 }
%class.vector.43 = type { ptr }
%class.decl_collector = type { ptr, %class.lim_svector, %class.lim_svector.45, %class.lim_svector.45, %class.ast_mark, %class.ref_vector.29, %class.svector, i32, i32, %"class.datatype::util", %class.array_util, i32, %class.ptr_vector.32 }
%class.lim_svector = type { %class.svector.44, %class.svector }
%class.svector.44 = type { %class.vector.40 }
%class.lim_svector.45 = type { %class.svector.46, %class.svector }
%class.svector.46 = type { %class.vector.47 }
%class.vector.47 = type { ptr }
%class.ast_mark = type { ptr, %class.obj_mark, %class.obj_mark.48 }
%class.obj_mark.48 = type { %"struct.ast_mark::decl2uint", %class.bit_vector }
%"struct.ast_mark::decl2uint" = type { i8 }
%class.ast_smt_pp = type <{ ptr, %class.ref_vector, %class.ref_vector, %class.symbol, %class.symbol, %class.symbol, %class.symbol, %class.symbol, %"class.std::__cxx11::basic_string", i32, [4 x i8], %"class.ast_smt_pp::is_declared", ptr, i8, [7 x i8] }>
%class.symbol = type { ptr }
%"class.std::__cxx11::basic_string" = type { %"struct.std::__cxx11::basic_string<char>::_Alloc_hider", i64, %union.anon }
%"struct.std::__cxx11::basic_string<char>::_Alloc_hider" = type { ptr }
%union.anon = type { i64, [8 x i8] }
%"class.ast_smt_pp::is_declared" = type { ptr }
%class.params_ref = type { ptr }

@.str.4 = private unnamed_addr constant [13 x i8] c"(assert (=> \00", align 1
@.str.5 = private unnamed_addr constant [2 x i8] c" \00", align 1
@.str.6 = private unnamed_addr constant [4 x i8] c"))\0A\00", align 1

; Function Attrs: mustprogress nounwind uwtable
define linkonce_odr hidden void @_ZN10params_refC2Ev(ptr noundef nonnull align 8 dereferenceable(8) %this) unnamed_addr #5 comdat align 2 {
entry:
  %this.addr = alloca ptr, align 8
  store ptr %this, ptr %this.addr, align 8
  %this1 = load ptr, ptr %this.addr, align 8
  %m_params = getelementptr inbounds %class.params_ref, ptr %this1, i32 0, i32 0
  store ptr null, ptr %m_params, align 8
  ret void
}

; Function Attrs: mustprogress uwtable
define hidden void @_ZN11ast_pp_util24display_assert_and_trackERSoP4exprS2_b(ptr noundef nonnull align 8 dereferenceable(1232) %this, ptr noundef nonnull align 8 dereferenceable(8) %out, ptr noundef %f, ptr noundef %t, i1 noundef zeroext %neat) #4 align 2 personality ptr @__gxx_personality_v0 {
entry:
  %this.addr = alloca ptr, align 8
  %out.addr = alloca ptr, align 8
  %f.addr = alloca ptr, align 8
  %t.addr = alloca ptr, align 8
  %neat.addr = alloca i8, align 1
  %ref.tmp = alloca %class.params_ref, align 8
  %exn.slot = alloca ptr, align 8
  %ehselector.slot = alloca i32, align 4
  %ref.tmp6 = alloca %class.params_ref, align 8
  %ll_smt2_pp = alloca %class.ast_smt_pp, align 8
  store ptr %this, ptr %this.addr, align 8
  store ptr %out, ptr %out.addr, align 8
  store ptr %f, ptr %f.addr, align 8
  store ptr %t, ptr %t.addr, align 8
  %frombool = zext i1 %neat to i8
  store i8 %frombool, ptr %neat.addr, align 1
  %this1 = load ptr, ptr %this.addr, align 8
  %0 = load i8, ptr %neat.addr, align 1
  %tobool = trunc i8 %0 to i1
  br i1 %tobool, label %if.then, label %if.else

if.then:                                          ; preds = %entry
  %1 = load ptr, ptr %out.addr, align 8
  %call = call noundef nonnull align 8 dereferenceable(8) ptr @_ZStlsISt11char_traitsIcEERSt13basic_ostreamIcT_ES5_PKc(ptr noundef nonnull align 8 dereferenceable(8) %1, ptr noundef @.str.4)
  %2 = load ptr, ptr %t.addr, align 8
  %m_env = getelementptr inbounds %class.ast_pp_util, ptr %this1, i32 0, i32 2
  call void @_ZN10params_refC2Ev(ptr noundef nonnull align 8 dereferenceable(8) %ref.tmp)
  %call2 = invoke noundef nonnull align 8 dereferenceable(8) ptr @_Z11ast_smt2_ppRSoP4exprR19smt2_pp_environmentRK10params_refjjPKc(ptr noundef nonnull align 8 dereferenceable(8) %call, ptr noundef %2, ptr noundef nonnull align 8 dereferenceable(56) %m_env, ptr noundef nonnull align 8 dereferenceable(8) %ref.tmp, i32 noundef 0, i32 noundef 0, ptr noundef null)
          to label %invoke.cont unwind label %lpad

invoke.cont:                                      ; preds = %if.then
  %call4 = invoke noundef nonnull align 8 dereferenceable(8) ptr @_ZStlsISt11char_traitsIcEERSt13basic_ostreamIcT_ES5_PKc(ptr noundef nonnull align 8 dereferenceable(8) %call2, ptr noundef @.str.5)
          to label %invoke.cont3 unwind label %lpad

invoke.cont3:                                     ; preds = %invoke.cont
  call void @_ZN10params_refD1Ev(ptr noundef nonnull align 8 dereferenceable(8) %ref.tmp) #3
  %3 = load ptr, ptr %out.addr, align 8
  %4 = load ptr, ptr %f.addr, align 8
  %m_env5 = getelementptr inbounds %class.ast_pp_util, ptr %this1, i32 0, i32 2
  call void @_ZN10params_refC2Ev(ptr noundef nonnull align 8 dereferenceable(8) %ref.tmp6)
  %call9 = invoke noundef nonnull align 8 dereferenceable(8) ptr @_Z11ast_smt2_ppRSoP4exprR19smt2_pp_environmentRK10params_refjjPKc(ptr noundef nonnull align 8 dereferenceable(8) %3, ptr noundef %4, ptr noundef nonnull align 8 dereferenceable(56) %m_env5, ptr noundef nonnull align 8 dereferenceable(8) %ref.tmp6, i32 noundef 0, i32 noundef 0, ptr noundef null)
          to label %invoke.cont8 unwind label %lpad7

invoke.cont8:                                     ; preds = %invoke.cont3
  %call11 = invoke noundef nonnull align 8 dereferenceable(8) ptr @_ZStlsISt11char_traitsIcEERSt13basic_ostreamIcT_ES5_PKc(ptr noundef nonnull align 8 dereferenceable(8) %call9, ptr noundef @.str.6)
          to label %invoke.cont10 unwind label %lpad7

invoke.cont10:                                    ; preds = %invoke.cont8
  call void @_ZN10params_refD1Ev(ptr noundef nonnull align 8 dereferenceable(8) %ref.tmp6) #3
  br label %if.end

lpad:                                             ; preds = %invoke.cont, %if.then
  %5 = landingpad { ptr, i32 }
          cleanup
  %6 = extractvalue { ptr, i32 } %5, 0
  store ptr %6, ptr %exn.slot, align 8
  %7 = extractvalue { ptr, i32 } %5, 1
  store i32 %7, ptr %ehselector.slot, align 4
  call void @_ZN10params_refD1Ev(ptr noundef nonnull align 8 dereferenceable(8) %ref.tmp) #3
  br label %eh.resume

lpad7:                                            ; preds = %invoke.cont8, %invoke.cont3
  %8 = landingpad { ptr, i32 }
          cleanup
  %9 = extractvalue { ptr, i32 } %8, 0
  store ptr %9, ptr %exn.slot, align 8
  %10 = extractvalue { ptr, i32 } %8, 1
  store i32 %10, ptr %ehselector.slot, align 4
  call void @_ZN10params_refD1Ev(ptr noundef nonnull align 8 dereferenceable(8) %ref.tmp6) #3
  br label %eh.resume

if.else:                                          ; preds = %entry
  %m = getelementptr inbounds %class.ast_pp_util, ptr %this1, i32 0, i32 0
  %11 = load ptr, ptr %m, align 8
  call void @_ZN10ast_smt_ppC1ER11ast_manager(ptr noundef nonnull align 8 dereferenceable(137) %ll_smt2_pp, ptr noundef nonnull align 8 dereferenceable(976) %11)
  %12 = load ptr, ptr %out.addr, align 8
  %call14 = invoke noundef nonnull align 8 dereferenceable(8) ptr @_ZStlsISt11char_traitsIcEERSt13basic_ostreamIcT_ES5_PKc(ptr noundef nonnull align 8 dereferenceable(8) %12, ptr noundef @.str.4)
          to label %invoke.cont13 unwind label %lpad12

invoke.cont13:                                    ; preds = %if.else
  %13 = load ptr, ptr %t.addr, align 8
  invoke void @_ZN10ast_smt_pp17display_expr_smt2ERSoP4exprjjPKPKc(ptr noundef nonnull align 8 dereferenceable(137) %ll_smt2_pp, ptr noundef nonnull align 8 dereferenceable(8) %call14, ptr noundef %13, i32 noundef 0, i32 noundef 0, ptr noundef null)
          to label %invoke.cont15 unwind label %lpad12

invoke.cont15:                                    ; preds = %invoke.cont13
  %14 = load ptr, ptr %out.addr, align 8
  %call17 = invoke noundef nonnull align 8 dereferenceable(8) ptr @_ZStlsISt11char_traitsIcEERSt13basic_ostreamIcT_ES5_PKc(ptr noundef nonnull align 8 dereferenceable(8) %14, ptr noundef @.str.5)
          to label %invoke.cont16 unwind label %lpad12

invoke.cont16:                                    ; preds = %invoke.cont15
  %15 = load ptr, ptr %out.addr, align 8
  %16 = load ptr, ptr %f.addr, align 8
  invoke void @_ZN10ast_smt_pp17display_expr_smt2ERSoP4exprjjPKPKc(ptr noundef nonnull align 8 dereferenceable(137) %ll_smt2_pp, ptr noundef nonnull align 8 dereferenceable(8) %15, ptr noundef %16, i32 noundef 0, i32 noundef 0, ptr noundef null)
          to label %invoke.cont18 unwind label %lpad12

invoke.cont18:                                    ; preds = %invoke.cont16
  %17 = load ptr, ptr %out.addr, align 8
  %call20 = invoke noundef nonnull align 8 dereferenceable(8) ptr @_ZStlsISt11char_traitsIcEERSt13basic_ostreamIcT_ES5_PKc(ptr noundef nonnull align 8 dereferenceable(8) %17, ptr noundef @.str.6)
          to label %invoke.cont19 unwind label %lpad12

invoke.cont19:                                    ; preds = %invoke.cont18
  call void @_ZN10ast_smt_ppD2Ev(ptr noundef nonnull align 8 dereferenceable(137) %ll_smt2_pp) #3
  br label %if.end

lpad12:                                           ; preds = %invoke.cont18, %invoke.cont16, %invoke.cont15, %invoke.cont13, %if.else
  %18 = landingpad { ptr, i32 }
          cleanup
  %19 = extractvalue { ptr, i32 } %18, 0
  store ptr %19, ptr %exn.slot, align 8
  %20 = extractvalue { ptr, i32 } %18, 1
  store i32 %20, ptr %ehselector.slot, align 4
  call void @_ZN10ast_smt_ppD2Ev(ptr noundef nonnull align 8 dereferenceable(137) %ll_smt2_pp) #3
  br label %eh.resume

if.end:                                           ; preds = %invoke.cont19, %invoke.cont10
  ret void

eh.resume:                                        ; preds = %lpad12, %lpad7, %lpad
  %exn = load ptr, ptr %exn.slot, align 8
  %sel = load i32, ptr %ehselector.slot, align 4
  %lpad.val = insertvalue { ptr, i32 } poison, ptr %exn, 0
  %lpad.val21 = insertvalue { ptr, i32 } %lpad.val, i32 %sel, 1
  resume { ptr, i32 } %lpad.val21
}