; Function Attrs: mustprogress uwtable
define hidden void @_ZN11ast_pp_util24display_assert_and_trackERSoP4exprS2_b(ptr noundef nonnull align 8 dereferenceable(1232) %this, ptr noundef nonnull align 8 dereferenceable(8) %out, ptr noundef %f, ptr noundef %t, i1 noundef zeroext %neat) local_unnamed_addr #3 align 2 personality ptr @__gxx_personality_v0 {
entry:
  %ref.tmp = alloca %class.params_ref, align 8
  %ref.tmp6 = alloca %class.params_ref, align 8
  %ll_smt2_pp = alloca %class.ast_smt_pp, align 8
  br i1 %neat, label %if.then, label %if.else

if.then:                                          ; preds = %entry
  %call = tail call noundef nonnull align 8 dereferenceable(8) ptr @_ZStlsISt11char_traitsIcEERSt13basic_ostreamIcT_ES5_PKc(ptr noundef nonnull align 8 dereferenceable(8) %out, ptr noundef nonnull @.str.4)
  %m_env = getelementptr inbounds i8, ptr %this, i64 32
  store ptr null, ptr %ref.tmp, align 8
  %call2 = invoke noundef nonnull align 8 dereferenceable(8) ptr @_Z11ast_smt2_ppRSoP4exprR19smt2_pp_environmentRK10params_refjjPKc(ptr noundef nonnull align 8 dereferenceable(8) %call, ptr noundef %t, ptr noundef nonnull align 8 dereferenceable(56) %m_env, ptr noundef nonnull align 8 dereferenceable(8) %ref.tmp, i32 noundef 0, i32 noundef 0, ptr noundef null)
          to label %invoke.cont unwind label %lpad

invoke.cont:                                      ; preds = %if.then
  %call4 = invoke noundef nonnull align 8 dereferenceable(8) ptr @_ZStlsISt11char_traitsIcEERSt13basic_ostreamIcT_ES5_PKc(ptr noundef nonnull align 8 dereferenceable(8) %call2, ptr noundef nonnull @.str.5)
          to label %invoke.cont3 unwind label %lpad

invoke.cont3:                                     ; preds = %invoke.cont
  call void @_ZN10params_refD1Ev(ptr noundef nonnull align 8 dereferenceable(8) %ref.tmp) #14
  store ptr null, ptr %ref.tmp6, align 8
  %call9 = invoke noundef nonnull align 8 dereferenceable(8) ptr @_Z11ast_smt2_ppRSoP4exprR19smt2_pp_environmentRK10params_refjjPKc(ptr noundef nonnull align 8 dereferenceable(8) %out, ptr noundef %f, ptr noundef nonnull align 8 dereferenceable(56) %m_env, ptr noundef nonnull align 8 dereferenceable(8) %ref.tmp6, i32 noundef 0, i32 noundef 0, ptr noundef null)
          to label %invoke.cont8 unwind label %lpad7

invoke.cont8:                                     ; preds = %invoke.cont3
  %call11 = invoke noundef nonnull align 8 dereferenceable(8) ptr @_ZStlsISt11char_traitsIcEERSt13basic_ostreamIcT_ES5_PKc(ptr noundef nonnull align 8 dereferenceable(8) %call9, ptr noundef nonnull @.str.6)
          to label %invoke.cont10 unwind label %lpad7

invoke.cont10:                                    ; preds = %invoke.cont8
  call void @_ZN10params_refD1Ev(ptr noundef nonnull align 8 dereferenceable(8) %ref.tmp6) #14
  br label %if.end

lpad:                                             ; preds = %invoke.cont, %if.then
  %0 = landingpad { ptr, i32 }
          cleanup
  call void @_ZN10params_refD1Ev(ptr noundef nonnull align 8 dereferenceable(8) %ref.tmp) #14
  br label %eh.resume

lpad7:                                            ; preds = %invoke.cont8, %invoke.cont3
  %1 = landingpad { ptr, i32 }
          cleanup
  call void @_ZN10params_refD1Ev(ptr noundef nonnull align 8 dereferenceable(8) %ref.tmp6) #14
  br label %eh.resume

if.else:                                          ; preds = %entry
  %2 = load ptr, ptr %this, align 8
  call void @_ZN10ast_smt_ppC1ER11ast_manager(ptr noundef nonnull align 8 dereferenceable(137) %ll_smt2_pp, ptr noundef nonnull align 8 dereferenceable(976) %2)
  %call14 = invoke noundef nonnull align 8 dereferenceable(8) ptr @_ZStlsISt11char_traitsIcEERSt13basic_ostreamIcT_ES5_PKc(ptr noundef nonnull align 8 dereferenceable(8) %out, ptr noundef nonnull @.str.4)
          to label %invoke.cont13 unwind label %lpad12

invoke.cont13:                                    ; preds = %if.else
  invoke void @_ZN10ast_smt_pp17display_expr_smt2ERSoP4exprjjPKPKc(ptr noundef nonnull align 8 dereferenceable(137) %ll_smt2_pp, ptr noundef nonnull align 8 dereferenceable(8) %call14, ptr noundef %t, i32 noundef 0, i32 noundef 0, ptr noundef null)
          to label %invoke.cont15 unwind label %lpad12

invoke.cont15:                                    ; preds = %invoke.cont13
  %call17 = invoke noundef nonnull align 8 dereferenceable(8) ptr @_ZStlsISt11char_traitsIcEERSt13basic_ostreamIcT_ES5_PKc(ptr noundef nonnull align 8 dereferenceable(8) %out, ptr noundef nonnull @.str.5)
          to label %invoke.cont16 unwind label %lpad12

invoke.cont16:                                    ; preds = %invoke.cont15
  invoke void @_ZN10ast_smt_pp17display_expr_smt2ERSoP4exprjjPKPKc(ptr noundef nonnull align 8 dereferenceable(137) %ll_smt2_pp, ptr noundef nonnull align 8 dereferenceable(8) %out, ptr noundef %f, i32 noundef 0, i32 noundef 0, ptr noundef null)
          to label %invoke.cont18 unwind label %lpad12

invoke.cont18:                                    ; preds = %invoke.cont16
  %call20 = invoke noundef nonnull align 8 dereferenceable(8) ptr @_ZStlsISt11char_traitsIcEERSt13basic_ostreamIcT_ES5_PKc(ptr noundef nonnull align 8 dereferenceable(8) %out, ptr noundef nonnull @.str.6)
          to label %invoke.cont19 unwind label %lpad12

invoke.cont19:                                    ; preds = %invoke.cont18
  call void @_ZN10ast_smt_ppD2Ev(ptr noundef nonnull align 8 dereferenceable(137) %ll_smt2_pp) #14
  br label %if.end

lpad12:                                           ; preds = %invoke.cont18, %invoke.cont16, %invoke.cont15, %invoke.cont13, %if.else
  %3 = landingpad { ptr, i32 }
          cleanup
  call void @_ZN10ast_smt_ppD2Ev(ptr noundef nonnull align 8 dereferenceable(137) %ll_smt2_pp) #14
  br label %eh.resume

if.end:                                           ; preds = %invoke.cont19, %invoke.cont10
  ret void

eh.resume:                                        ; preds = %lpad12, %lpad7, %lpad
  %.pn = phi { ptr, i32 } [ %1, %lpad7 ], [ %0, %lpad ], [ %3, %lpad12 ]
  resume { ptr, i32 } %.pn
}